; Function Attrs: mustprogress nofree norecurse nosync nounwind willreturn memory(argmem: read) uwtable
define noundef i32 @_ZN10open_spiel14dots_and_boxes4Move12GetCellBelowEv(ptr nocapture noundef nonnull readonly align 4 dereferenceable(20) %0) local_unnamed_addr #7 align 2 {
  %2 = load i32, ptr %0, align 4
  %3 = getelementptr inbounds nuw i8, ptr %0, i64 12
  %4 = load i32, ptr %3, align 4
  %5 = icmp eq i32 %2, %4
  br i1 %5, label %15, label %6

6:                                                ; preds = %1
  %7 = add nsw i32 %2, 1
  %8 = getelementptr inbounds nuw i8, ptr %0, i64 16
  %9 = load i32, ptr %8, align 4
  %10 = add nsw i32 %9, 1
  %11 = mul nsw i32 %10, %7
  %12 = getelementptr inbounds nuw i8, ptr %0, i64 4
  %13 = load i32, ptr %12, align 4
  %14 = add nsw i32 %11, %13
  br label %15

15:                                               ; preds = %1, %6
  %.0 = phi i32 [ %14, %6 ], [ -1, %1 ]
  ret i32 %.0
}